target datalayout = "e-m:e-p270:32:32-p271:32:32-p272:64:64-i64:64-i128:128-f80:128-n8:16:32:64-S128"
target triple = "x86_64-pc-linux-gnu"

%"struct.icu_77::UInitOnce" = type { %"struct.std::atomic", i32 }
%"struct.std::atomic" = type { %"struct.std::__atomic_base" }
%"struct.std::__atomic_base" = type { i32 }

@_ZN6icu_77L18gCharNamesInitOnceE = internal global { { i32 }, i32 } zeroinitializer, align 4

; Function Attrs: noinline noreturn nounwind uwtable
define linkonce_odr hidden void @__clang_call_terminate(ptr noundef %0) #11 comdat {
  %2 = call ptr @__cxa_begin_catch(ptr %0) #12
  call void @_ZSt9terminatev() #15
  unreachable
}

; Function Attrs: mustprogress nounwind uwtable
define linkonce_odr noundef i32 @_ZStanSt12memory_orderSt23__memory_order_modifier(i32 noundef %0, i32 noundef %1) #6 comdat {
  %3 = alloca i32, align 4
  %4 = alloca i32, align 4
  store i32 %0, ptr %3, align 4, !tbaa !113
  store i32 %1, ptr %4, align 4, !tbaa !115
  %5 = load i32, ptr %3, align 4, !tbaa !113
  %6 = load i32, ptr %4, align 4, !tbaa !115
  %7 = and i32 %5, %6
  ret i32 %7
}

; Function Attrs: alwaysinline mustprogress nounwind uwtable
define linkonce_odr noundef i32 @_ZNKSt13__atomic_baseIiE4loadESt12memory_order(ptr noundef nonnull align 4 dereferenceable(4) %0, i32 noundef %1) #10 comdat align 2 personality ptr @__gxx_personality_v0 {
  %3 = alloca ptr, align 8
  %4 = alloca i32, align 4
  %5 = alloca i32, align 4
  %6 = alloca i32, align 4
  store ptr %0, ptr %3, align 8, !tbaa !111
  store i32 %1, ptr %4, align 4, !tbaa !113
  %7 = load ptr, ptr %3, align 8
  call void @llvm.lifetime.start.p0(i64 4, ptr %5) #12
  %8 = load i32, ptr %4, align 4, !tbaa !113
  %9 = invoke noundef i32 @_ZStanSt12memory_orderSt23__memory_order_modifier(i32 noundef %8, i32 noundef 65535)
          to label %10 unwind label %27

10:                                               ; preds = %2
  store i32 %9, ptr %5, align 4, !tbaa !113
  br label %11

11:                                               ; preds = %10
  br label %12

12:                                               ; preds = %11
  br label %13

13:                                               ; preds = %12
  br label %14

14:                                               ; preds = %13
  br label %15

15:                                               ; preds = %14
  br label %16

16:                                               ; preds = %15
  %17 = getelementptr inbounds nuw %"struct.std::__atomic_base", ptr %7, i32 0, i32 0
  %18 = load i32, ptr %4, align 4, !tbaa !113
  switch i32 %18, label %19 [
    i32 1, label %21
    i32 2, label %21
    i32 5, label %23
  ]

19:                                               ; preds = %16
  %20 = load atomic i32, ptr %17 monotonic, align 4
  store i32 %20, ptr %6, align 4
  br label %25

21:                                               ; preds = %16, %16
  %22 = load atomic i32, ptr %17 acquire, align 4
  store i32 %22, ptr %6, align 4
  br label %25

23:                                               ; preds = %16
  %24 = load atomic i32, ptr %17 seq_cst, align 4
  store i32 %24, ptr %6, align 4
  br label %25

25:                                               ; preds = %23, %21, %19
  %26 = load i32, ptr %6, align 4, !tbaa !3
  call void @llvm.lifetime.end.p0(i64 4, ptr %5) #12
  ret i32 %26

27:                                               ; preds = %2
  %28 = landingpad { ptr, i32 }
          catch ptr null
  %29 = extractvalue { ptr, i32 } %28, 0
  call void @__clang_call_terminate(ptr %29) #15
  unreachable
}

; Function Attrs: inlinehint mustprogress nounwind uwtable
define linkonce_odr noundef i32 @_ZN6icu_7716umtx_loadAcquireERSt6atomicIiE(ptr noundef nonnull align 4 dereferenceable(4) %0) #2 comdat {
  %2 = alloca ptr, align 8
  store ptr %0, ptr %2, align 8, !tbaa !109
  %3 = load ptr, ptr %2, align 8, !tbaa !109
  %4 = call noundef i32 @_ZNKSt13__atomic_baseIiE4loadESt12memory_order(ptr noundef nonnull align 4 dereferenceable(4) %3, i32 noundef 2) #12
  ret i32 %4
}

; Function Attrs: inlinehint mustprogress nounwind uwtable
define internal noundef signext i8 @_ZL9U_FAILURE10UErrorCode(i32 noundef %0) #2 {
  %2 = alloca i32, align 4
  store i32 %0, ptr %2, align 4, !tbaa !13
  %3 = load i32, ptr %2, align 4, !tbaa !13
  %4 = icmp sgt i32 %3, 0
  %5 = zext i1 %4 to i8
  ret i8 %5
}

; Function Attrs: inlinehint mustprogress nounwind uwtable
define internal noundef signext i8 @_ZL9U_SUCCESS10UErrorCode(i32 noundef %0) #2 {
  %2 = alloca i32, align 4
  store i32 %0, ptr %2, align 4, !tbaa !13
  %3 = load i32, ptr %2, align 4, !tbaa !13
  %4 = icmp sle i32 %3, 0
  %5 = zext i1 %4 to i8
  ret i8 %5
}

; Function Attrs: inlinehint mustprogress uwtable
define linkonce_odr void @_ZN6icu_7713umtx_initOnceERNS_9UInitOnceEPFvR10UErrorCodeES3_(ptr noundef nonnull align 4 dereferenceable(8) %0, ptr noundef %1, ptr noundef nonnull align 4 dereferenceable(4) %2) #9 comdat {
  %4 = alloca ptr, align 8
  %5 = alloca ptr, align 8
  %6 = alloca ptr, align 8
  store ptr %0, ptr %4, align 8, !tbaa !101
  store ptr %1, ptr %5, align 8, !tbaa !12
  store ptr %2, ptr %6, align 8, !tbaa !12
  %7 = load ptr, ptr %6, align 8, !tbaa !12
  %8 = load i32, ptr %7, align 4, !tbaa !13
  %9 = call noundef signext i8 @_ZL9U_FAILURE10UErrorCode(i32 noundef %8)
  %10 = icmp ne i8 %9, 0
  br i1 %10, label %11, label %12

11:                                               ; preds = %3
  br label %41

12:                                               ; preds = %3
  %13 = load ptr, ptr %4, align 8, !tbaa !101
  %14 = getelementptr inbounds nuw %"struct.icu_77::UInitOnce", ptr %13, i32 0, i32 0
  %15 = call noundef i32 @_ZN6icu_7716umtx_loadAcquireERSt6atomicIiE(ptr noundef nonnull align 4 dereferenceable(4) %14)
  %16 = icmp ne i32 %15, 2
  br i1 %16, label %17, label %29

17:                                               ; preds = %12
  %18 = load ptr, ptr %4, align 8, !tbaa !101
  %19 = call noundef signext i8 @_ZN6icu_7720umtx_initImplPreInitERNS_9UInitOnceE(ptr noundef nonnull align 4 dereferenceable(8) %18)
  %20 = icmp ne i8 %19, 0
  br i1 %20, label %21, label %29

21:                                               ; preds = %17
  %22 = load ptr, ptr %5, align 8, !tbaa !12
  %23 = load ptr, ptr %6, align 8, !tbaa !12
  call void %22(ptr noundef nonnull align 4 dereferenceable(4) %23)
  %24 = load ptr, ptr %6, align 8, !tbaa !12
  %25 = load i32, ptr %24, align 4, !tbaa !13
  %26 = load ptr, ptr %4, align 8, !tbaa !101
  %27 = getelementptr inbounds nuw %"struct.icu_77::UInitOnce", ptr %26, i32 0, i32 1
  store i32 %25, ptr %27, align 4, !tbaa !103
  %28 = load ptr, ptr %4, align 8, !tbaa !101
  call void @_ZN6icu_7721umtx_initImplPostInitERNS_9UInitOnceE(ptr noundef nonnull align 4 dereferenceable(8) %28)
  br label %41

29:                                               ; preds = %17, %12
  %30 = load ptr, ptr %4, align 8, !tbaa !101
  %31 = getelementptr inbounds nuw %"struct.icu_77::UInitOnce", ptr %30, i32 0, i32 1
  %32 = load i32, ptr %31, align 4, !tbaa !103
  %33 = call noundef signext i8 @_ZL9U_FAILURE10UErrorCode(i32 noundef %32)
  %34 = icmp ne i8 %33, 0
  br i1 %34, label %35, label %40

35:                                               ; preds = %29
  %36 = load ptr, ptr %4, align 8, !tbaa !101
  %37 = getelementptr inbounds nuw %"struct.icu_77::UInitOnce", ptr %36, i32 0, i32 1
  %38 = load i32, ptr %37, align 4, !tbaa !103
  %39 = load ptr, ptr %6, align 8, !tbaa !12
  store i32 %38, ptr %39, align 4, !tbaa !13
  br label %40

40:                                               ; preds = %35, %29
  br label %41

41:                                               ; preds = %11, %40, %21
  ret void
}

; Function Attrs: mustprogress uwtable
define internal noundef signext i8 @_ZN6icu_77L12isDataLoadedEP10UErrorCode(ptr noundef %0) #0 {
  %2 = alloca ptr, align 8
  store ptr %0, ptr %2, align 8, !tbaa !12
  %3 = load ptr, ptr %2, align 8, !tbaa !12
  call void @_ZN6icu_7713umtx_initOnceERNS_9UInitOnceEPFvR10UErrorCodeES3_(ptr noundef nonnull align 4 dereferenceable(8) @_ZN6icu_77L18gCharNamesInitOnceE, ptr noundef @_ZN6icu_77L13loadCharNamesER10UErrorCode, ptr noundef nonnull align 4 dereferenceable(4) %3)
  %4 = load ptr, ptr %2, align 8, !tbaa !12
  %5 = load i32, ptr %4, align 4, !tbaa !13
  %6 = call noundef signext i8 @_ZL9U_SUCCESS10UErrorCode(i32 noundef %5)
  ret i8 %6
}