; Function Attrs: mustprogress uwtable
define internal fastcc noundef signext range(i8 0, 2) i8 @_ZN6icu_77L12isDataLoadedEP10UErrorCode(ptr noundef nonnull %0) unnamed_addr #0 personality ptr @__gxx_personality_v0 {
  %2 = load i32, ptr %0, align 4, !tbaa !3
  %3 = icmp slt i32 %2, 1
  br i1 %3, label %4, label %_ZN6icu_7713umtx_initOnceERNS_9UInitOnceEPFvR10UErrorCodeES3_.exit

4:                                                ; preds = %1
  %5 = load atomic i32, ptr @_ZN6icu_77L18gCharNamesInitOnceE acquire, align 4
  %.not11.i = icmp eq i32 %5, 2
  br i1 %.not11.i, label %16, label %6

6:                                                ; preds = %4
  %7 = tail call noundef signext i8 @_ZN6icu_7720umtx_initImplPreInitERNS_9UInitOnceE(ptr noundef nonnull align 4 dereferenceable(8) @_ZN6icu_77L18gCharNamesInitOnceE)
  %.not12.i = icmp eq i8 %7, 0
  br i1 %.not12.i, label %16, label %8

8:                                                ; preds = %6
  %9 = tail call ptr @udata_openChoice_77(ptr noundef null, ptr noundef nonnull @_ZN6icu_77L9DATA_TYPEE, ptr noundef nonnull @_ZN6icu_77L9DATA_NAMEE, ptr noundef nonnull @_ZN6icu_77L12isAcceptableEPvPKcS2_PK9UDataInfo, ptr noundef null, ptr noundef nonnull align 4 dereferenceable(4) %0)
  store ptr %9, ptr @_ZN6icu_77L14uCharNamesDataE, align 8, !tbaa !20
  %10 = load i32, ptr %0, align 4, !tbaa !3
  %11 = icmp slt i32 %10, 1
  br i1 %11, label %13, label %12

12:                                               ; preds = %8
  store ptr null, ptr @_ZN6icu_77L14uCharNamesDataE, align 8, !tbaa !20
  br label %_ZN6icu_77L13loadCharNamesER10UErrorCode.exit

13:                                               ; preds = %8
  %14 = tail call ptr @udata_getMemory_77(ptr noundef %9)
  store ptr %14, ptr @_ZN6icu_77L10uCharNamesE, align 8, !tbaa !7
  br label %_ZN6icu_77L13loadCharNamesER10UErrorCode.exit

_ZN6icu_77L13loadCharNamesER10UErrorCode.exit:    ; preds = %12, %13
  tail call void @ucln_common_registerCleanup_77(i32 noundef 18, ptr noundef nonnull @_ZN6icu_77L14unames_cleanupEv)
  %15 = load i32, ptr %0, align 4, !tbaa !3
  store i32 %15, ptr getelementptr inbounds nuw (i8, ptr @_ZN6icu_77L18gCharNamesInitOnceE, i64 4), align 4, !tbaa !22
  tail call void @_ZN6icu_7721umtx_initImplPostInitERNS_9UInitOnceE(ptr noundef nonnull align 4 dereferenceable(8) @_ZN6icu_77L18gCharNamesInitOnceE)
  br label %_ZN6icu_7713umtx_initOnceERNS_9UInitOnceEPFvR10UErrorCodeES3_.exit

16:                                               ; preds = %6, %4
  %17 = load i32, ptr getelementptr inbounds nuw (i8, ptr @_ZN6icu_77L18gCharNamesInitOnceE, i64 4), align 4, !tbaa !22
  %18 = icmp slt i32 %17, 1
  br i1 %18, label %_ZN6icu_7713umtx_initOnceERNS_9UInitOnceEPFvR10UErrorCodeES3_.exit, label %19

19:                                               ; preds = %16
  store i32 %17, ptr %0, align 4, !tbaa !3
  br label %_ZN6icu_7713umtx_initOnceERNS_9UInitOnceEPFvR10UErrorCodeES3_.exit

_ZN6icu_7713umtx_initOnceERNS_9UInitOnceEPFvR10UErrorCodeES3_.exit: ; preds = %1, %_ZN6icu_77L13loadCharNamesER10UErrorCode.exit, %16, %19
  %20 = load i32, ptr %0, align 4, !tbaa !3
  %21 = icmp slt i32 %20, 1
  %22 = zext i1 %21 to i8
  ret i8 %22
}